target datalayout = "e-m:e-p270:32:32-p271:32:32-p272:64:64-i64:64-i128:128-f80:128-n8:16:32:64-S128"
target triple = "x86_64-pc-linux-gnu"

%class.CacheProxyModel = type { %class.QIdentityProxyModel, %class.QStandardItemModel }
%class.QIdentityProxyModel = type { %class.QAbstractProxyModel }
%class.QAbstractProxyModel = type { %class.QAbstractItemModel }
%class.QAbstractItemModel = type { %class.QObject }
%class.QObject = type { ptr, %class.QScopedPointer }
%class.QScopedPointer = type { ptr }
%class.QStandardItemModel = type { %class.QAbstractItemModel }

@_ZTV15CacheProxyModel = external unnamed_addr constant { [56 x ptr] }, align 8

; Function Attrs: mustprogress uwtable
define void @_ZN15CacheProxyModelC2EP7QObject(ptr noundef nonnull align 8 dereferenceable(32) %0, ptr noundef %1) unnamed_addr #0 align 2 personality ptr @__gxx_personality_v0 {
  %3 = alloca ptr, align 8
  %4 = alloca ptr, align 8
  %5 = alloca ptr, align 8
  %6 = alloca i32, align 4
  store ptr %0, ptr %3, align 8
  store ptr %1, ptr %4, align 8
  %7 = load ptr, ptr %3, align 8
  %8 = load ptr, ptr %4, align 8
  call void @_ZN19QIdentityProxyModelC2EP7QObject(ptr noundef nonnull align 8 dereferenceable(16) %7, ptr noundef %8)
  store ptr getelementptr inbounds ({ [56 x ptr] }, ptr @_ZTV15CacheProxyModel, i32 0, i32 0, i32 2), ptr %7, align 8
  %9 = getelementptr inbounds %class.CacheProxyModel, ptr %7, i32 0, i32 1
  invoke void @_ZN18QStandardItemModelC1EP7QObject(ptr noundef nonnull align 8 dereferenceable(16) %9, ptr noundef null)
          to label %10 unwind label %11

10:                                               ; preds = %2
  ret void

11:                                               ; preds = %2
  %12 = landingpad { ptr, i32 }
          cleanup
  %13 = extractvalue { ptr, i32 } %12, 0
  store ptr %13, ptr %5, align 8
  %14 = extractvalue { ptr, i32 } %12, 1
  store i32 %14, ptr %6, align 4
  call void @_ZN19QIdentityProxyModelD2Ev(ptr noundef nonnull align 8 dereferenceable(16) %7) #6
  br label %15

15:                                               ; preds = %11
  %16 = load ptr, ptr %5, align 8
  %17 = load i32, ptr %6, align 4
  %18 = insertvalue { ptr, i32 } poison, ptr %16, 0
  %19 = insertvalue { ptr, i32 } %18, i32 %17, 1
  resume { ptr, i32 } %19
}