; Function Attrs: mustprogress uwtable
define void @_ZN15CacheProxyModelC2EP7QObject(ptr noundef nonnull align 8 dereferenceable(32) %0, ptr noundef %1) unnamed_addr #0 align 2 personality ptr @__gxx_personality_v0 {
  tail call void @_ZN19QIdentityProxyModelC2EP7QObject(ptr noundef nonnull align 8 dereferenceable(16) %0, ptr noundef %1)
  store ptr getelementptr inbounds ({ [56 x ptr] }, ptr @_ZTV15CacheProxyModel, i64 0, i32 0, i64 2), ptr %0, align 8
  %3 = getelementptr inbounds i8, ptr %0, i64 16
  invoke void @_ZN18QStandardItemModelC1EP7QObject(ptr noundef nonnull align 8 dereferenceable(16) %3, ptr noundef null)
          to label %4 unwind label %5

4:                                                ; preds = %2
  ret void

5:                                                ; preds = %2
  %6 = landingpad { ptr, i32 }
          cleanup
  tail call void @_ZN19QIdentityProxyModelD2Ev(ptr noundef nonnull align 8 dereferenceable(16) %0) #7
  resume { ptr, i32 } %6
}